target datalayout = "e-m:e-p270:32:32-p271:32:32-p272:64:64-i64:64-i128:128-f80:128-n8:16:32:64-S128"
target triple = "x86_64-pc-linux-gnu"

%"class.boost::iostreams::detail::gzip_footer" = type { i32, i32, i32, i32 }

; Function Attrs: mustprogress nounwind uwtable
define void @_ZN5boost9iostreams6detail11gzip_footer7processEc(ptr noundef nonnull align 4 dereferenceable(16) %0, i8 noundef signext %1) #4 align 2 {
  %3 = alloca ptr, align 8
  %4 = alloca i8, align 1
  %5 = alloca i8, align 1
  store ptr %0, ptr %3, align 8, !tbaa !3
  store i8 %1, ptr %4, align 1, !tbaa !7
  %6 = load ptr, ptr %3, align 8
  call void @llvm.lifetime.start.p0(i64 1, ptr %5) #15
  %7 = load i8, ptr %4, align 1, !tbaa !7
  store i8 %7, ptr %5, align 1, !tbaa !7
  %8 = getelementptr inbounds nuw %"class.boost::iostreams::detail::gzip_footer", ptr %6, i32 0, i32 2
  %9 = load i32, ptr %8, align 4, !tbaa !31
  %10 = icmp eq i32 %9, 1
  br i1 %10, label %11, label %32

11:                                               ; preds = %2
  %12 = load i8, ptr %5, align 1, !tbaa !7
  %13 = zext i8 %12 to i32
  %14 = getelementptr inbounds nuw %"class.boost::iostreams::detail::gzip_footer", ptr %6, i32 0, i32 3
  %15 = load i32, ptr %14, align 4, !tbaa !33
  %16 = mul nsw i32 %15, 8
  %17 = shl i32 %13, %16
  %18 = getelementptr inbounds nuw %"class.boost::iostreams::detail::gzip_footer", ptr %6, i32 0, i32 0
  %19 = load i32, ptr %18, align 4, !tbaa !34
  %20 = add i32 %19, %17
  store i32 %20, ptr %18, align 4, !tbaa !34
  %21 = getelementptr inbounds nuw %"class.boost::iostreams::detail::gzip_footer", ptr %6, i32 0, i32 3
  %22 = load i32, ptr %21, align 4, !tbaa !33
  %23 = icmp eq i32 %22, 3
  br i1 %23, label %24, label %27

24:                                               ; preds = %11
  %25 = getelementptr inbounds nuw %"class.boost::iostreams::detail::gzip_footer", ptr %6, i32 0, i32 2
  store i32 2, ptr %25, align 4, !tbaa !31
  %26 = getelementptr inbounds nuw %"class.boost::iostreams::detail::gzip_footer", ptr %6, i32 0, i32 3
  store i32 0, ptr %26, align 4, !tbaa !33
  br label %31

27:                                               ; preds = %11
  %28 = getelementptr inbounds nuw %"class.boost::iostreams::detail::gzip_footer", ptr %6, i32 0, i32 3
  %29 = load i32, ptr %28, align 4, !tbaa !33
  %30 = add nsw i32 %29, 1
  store i32 %30, ptr %28, align 4, !tbaa !33
  br label %31

31:                                               ; preds = %27, %24
  br label %59

32:                                               ; preds = %2
  %33 = getelementptr inbounds nuw %"class.boost::iostreams::detail::gzip_footer", ptr %6, i32 0, i32 2
  %34 = load i32, ptr %33, align 4, !tbaa !31
  %35 = icmp eq i32 %34, 2
  br i1 %35, label %36, label %57

36:                                               ; preds = %32
  %37 = load i8, ptr %5, align 1, !tbaa !7
  %38 = zext i8 %37 to i32
  %39 = getelementptr inbounds nuw %"class.boost::iostreams::detail::gzip_footer", ptr %6, i32 0, i32 3
  %40 = load i32, ptr %39, align 4, !tbaa !33
  %41 = mul nsw i32 %40, 8
  %42 = shl i32 %38, %41
  %43 = getelementptr inbounds nuw %"class.boost::iostreams::detail::gzip_footer", ptr %6, i32 0, i32 1
  %44 = load i32, ptr %43, align 4, !tbaa !35
  %45 = add i32 %44, %42
  store i32 %45, ptr %43, align 4, !tbaa !35
  %46 = getelementptr inbounds nuw %"class.boost::iostreams::detail::gzip_footer", ptr %6, i32 0, i32 3
  %47 = load i32, ptr %46, align 4, !tbaa !33
  %48 = icmp eq i32 %47, 3
  br i1 %48, label %49, label %52

49:                                               ; preds = %36
  %50 = getelementptr inbounds nuw %"class.boost::iostreams::detail::gzip_footer", ptr %6, i32 0, i32 2
  store i32 3, ptr %50, align 4, !tbaa !31
  %51 = getelementptr inbounds nuw %"class.boost::iostreams::detail::gzip_footer", ptr %6, i32 0, i32 3
  store i32 0, ptr %51, align 4, !tbaa !33
  br label %56

52:                                               ; preds = %36
  %53 = getelementptr inbounds nuw %"class.boost::iostreams::detail::gzip_footer", ptr %6, i32 0, i32 3
  %54 = load i32, ptr %53, align 4, !tbaa !33
  %55 = add nsw i32 %54, 1
  store i32 %55, ptr %53, align 4, !tbaa !33
  br label %56

56:                                               ; preds = %52, %49
  br label %58

57:                                               ; preds = %32
  br label %58

58:                                               ; preds = %57, %56
  br label %59

59:                                               ; preds = %58, %31
  call void @llvm.lifetime.end.p0(i64 1, ptr %5) #15
  ret void
}