; Function Attrs: mustprogress nofree norecurse nosync nounwind willreturn memory(argmem: readwrite) uwtable
define void @_ZN5boost9iostreams6detail11gzip_footer7processEc(ptr nocapture noundef nonnull align 4 dereferenceable(16) %0, i8 noundef signext %1) local_unnamed_addr #5 align 2 {
  %3 = getelementptr inbounds nuw i8, ptr %0, i64 8
  %4 = load i32, ptr %3, align 4, !tbaa !33
  switch i32 %4, label %30 [
    i32 1, label %5
    i32 2, label %17
  ]

5:                                                ; preds = %2
  %6 = zext i8 %1 to i32
  %7 = getelementptr inbounds nuw i8, ptr %0, i64 12
  %8 = load i32, ptr %7, align 4, !tbaa !35
  %9 = shl nsw i32 %8, 3
  %10 = shl i32 %6, %9
  %11 = load i32, ptr %0, align 4, !tbaa !36
  %12 = add i32 %10, %11
  store i32 %12, ptr %0, align 4, !tbaa !36
  %13 = icmp eq i32 %8, 3
  br i1 %13, label %14, label %15

14:                                               ; preds = %5
  store i32 2, ptr %3, align 4, !tbaa !33
  store i32 0, ptr %7, align 4, !tbaa !35
  br label %30

15:                                               ; preds = %5
  %16 = add nsw i32 %8, 1
  store i32 %16, ptr %7, align 4, !tbaa !35
  br label %30

17:                                               ; preds = %2
  %18 = zext i8 %1 to i32
  %19 = getelementptr inbounds nuw i8, ptr %0, i64 12
  %20 = load i32, ptr %19, align 4, !tbaa !35
  %21 = shl nsw i32 %20, 3
  %22 = shl i32 %18, %21
  %23 = getelementptr inbounds nuw i8, ptr %0, i64 4
  %24 = load i32, ptr %23, align 4, !tbaa !37
  %25 = add i32 %22, %24
  store i32 %25, ptr %23, align 4, !tbaa !37
  %26 = icmp eq i32 %20, 3
  br i1 %26, label %27, label %28

27:                                               ; preds = %17
  store i32 3, ptr %3, align 4, !tbaa !33
  store i32 0, ptr %19, align 4, !tbaa !35
  br label %30

28:                                               ; preds = %17
  %29 = add nsw i32 %20, 1
  store i32 %29, ptr %19, align 4, !tbaa !35
  br label %30

30:                                               ; preds = %2, %28, %27, %14, %15
  ret void
}